; Function Attrs: mustprogress nounwind uwtable
define internal void @_ZN12_GLOBAL__N_124OpenCLBuiltinTestEmitterD0Ev(ptr noundef nonnull align 8 dereferenceable(48) %0) unnamed_addr #0 align 2 {
  store ptr getelementptr inbounds inrange(-16, 24) (i8, ptr @_ZTVN12_GLOBAL__N_128OpenCLBuiltinFileEmitterBaseE, i64 16), ptr %0, align 8
  %2 = getelementptr inbounds nuw i8, ptr %0, i64 8
  %3 = getelementptr inbounds i8, ptr %0, i64 20
  %4 = load i32, ptr %3, align 4
  %5 = icmp eq i32 %4, 0
  br i1 %5, label %_ZN12_GLOBAL__N_124OpenCLBuiltinTestEmitterD2Ev.exit, label %6

6:                                                ; preds = %1
  %7 = getelementptr inbounds i8, ptr %0, i64 16
  %8 = load i32, ptr %7, align 8
  %.not10.i.i.i = icmp eq i32 %8, 0
  br i1 %.not10.i.i.i, label %_ZN12_GLOBAL__N_124OpenCLBuiltinTestEmitterD2Ev.exit, label %.lr.ph.preheader.i.i.i

.lr.ph.preheader.i.i.i:                           ; preds = %6
  %9 = zext i32 %8 to i64
  br label %.lr.ph.i.i.i

.lr.ph.i.i.i:                                     ; preds = %16, %.lr.ph.preheader.i.i.i
  %indvars.iv.i.i.i = phi i64 [ 0, %.lr.ph.preheader.i.i.i ], [ %indvars.iv.next.i.i.i, %16 ]
  %10 = load ptr, ptr %2, align 8
  %11 = getelementptr inbounds ptr, ptr %10, i64 %indvars.iv.i.i.i
  %12 = load ptr, ptr %11, align 8
  %magicptr.i.i.i = ptrtoint ptr %12 to i64
  switch i64 %magicptr.i.i.i, label %13 [
    i64 0, label %16
    i64 -8, label %16
  ]

13:                                               ; preds = %.lr.ph.i.i.i
  %14 = load i64, ptr %12, align 8
  %15 = add i64 %14, 25
  tail call void @_ZN4llvm17deallocate_bufferEPvmm(ptr noundef nonnull %12, i64 noundef %15, i64 noundef 8) #20
  br label %16

16:                                               ; preds = %13, %.lr.ph.i.i.i, %.lr.ph.i.i.i
  %indvars.iv.next.i.i.i = add nuw nsw i64 %indvars.iv.i.i.i, 1
  %.not.i.i.i = icmp eq i64 %indvars.iv.next.i.i.i, %9
  br i1 %.not.i.i.i, label %_ZN12_GLOBAL__N_124OpenCLBuiltinTestEmitterD2Ev.exit, label %.lr.ph.i.i.i, !llvm.loop !41

_ZN12_GLOBAL__N_124OpenCLBuiltinTestEmitterD2Ev.exit: ; preds = %16, %1, %6
  %17 = load ptr, ptr %2, align 8
  tail call void @free(ptr noundef %17) #20
  tail call void @_ZdlPvm(ptr noundef nonnull %0, i64 noundef 48) #21
  ret void
}